; Function Attrs: nounwind uwtable
define internal noundef i32 @hash_format_check_report(ptr readnone captures(none) %0, ptr readnone captures(none) %1, i32 %2, i32 %3, ptr noundef %4) #1 {
  %6 = load i32, ptr @git_gettext_enabled, align 4, !tbaa !44
  %.not4.i = icmp eq i32 %6, 0
  br i1 %.not4.i, label %_.exit, label %7

7:                                                ; preds = %5
  %8 = tail call ptr @dcgettext(ptr noundef null, ptr noundef nonnull @.str.103, i32 noundef 5) #27
  br label %_.exit

_.exit:                                           ; preds = %5, %7
  %.0.i = phi ptr [ %8, %7 ], [ @.str.103, %5 ]
  %9 = tail call i32 (ptr, ...) @error(ptr noundef %.0.i, ptr noundef %4) #27
  ret i32 1
}